target datalayout = "e-m:e-p270:32:32-p271:32:32-p272:64:64-i64:64-i128:128-f80:128-n8:16:32:64-S128"
target triple = "x86_64-pc-linux-gnu"

%class.btTransform = type { %class.btMatrix3x3, %class.btVector3 }
%class.btMatrix3x3 = type { [3 x %class.btVector3] }
%class.btVector3 = type { [4 x float] }
%class.btRaycastVehicle = type { %class.btActionInterface, %class.btAlignedObjectArray.2, %class.btAlignedObjectArray.2, %class.btAlignedObjectArray.4, %class.btAlignedObjectArray.4, i32, i32, ptr, float, float, float, ptr, i32, i32, i32, [4 x i8], %class.btAlignedObjectArray.6 }
%class.btActionInterface = type { ptr }
%class.btAlignedObjectArray.2 = type <{ [4 x i8], i32, i32, [4 x i8], ptr, i8, [7 x i8] }>
%class.btAlignedObjectArray.4 = type <{ [4 x i8], i32, i32, [4 x i8], ptr, i8, [7 x i8] }>
%class.btAlignedObjectArray.6 = type <{ [4 x i8], i32, i32, [4 x i8], ptr, i8, [7 x i8] }>
%struct.btWheelInfo = type { %"struct.btWheelInfo::RaycastInfo", %class.btTransform, %class.btVector3, %class.btVector3, %class.btVector3, float, float, float, float, float, float, float, float, float, float, float, float, float, float, i8, ptr, float, float, float, float }
%"struct.btWheelInfo::RaycastInfo" = type { %class.btVector3, %class.btVector3, float, %class.btVector3, %class.btVector3, %class.btVector3, i8, ptr }

; Function Attrs: inlinehint mustprogress nounwind uwtable
define linkonce_odr dso_local noundef nonnull align 8 dereferenceable(296) ptr @_ZN20btAlignedObjectArrayI11btWheelInfoEixEi(ptr noundef nonnull align 8 dereferenceable(25) %0, i32 noundef %1) #5 comdat align 2 {
  %3 = alloca ptr, align 8
  %4 = alloca i32, align 4
  store ptr %0, ptr %3, align 8, !tbaa !51
  store i32 %1, ptr %4, align 4, !tbaa !9
  %5 = load ptr, ptr %3, align 8
  %6 = getelementptr inbounds nuw %class.btAlignedObjectArray.6, ptr %5, i32 0, i32 4
  %7 = load ptr, ptr %6, align 8, !tbaa !80
  %8 = load i32, ptr %4, align 4, !tbaa !9
  %9 = sext i32 %8 to i64
  %10 = getelementptr inbounds %struct.btWheelInfo, ptr %7, i64 %9
  ret ptr %10
}

; Function Attrs: inlinehint mustprogress nounwind uwtable
define linkonce_odr dso_local noundef i32 @_ZNK20btAlignedObjectArrayI11btWheelInfoE4sizeEv(ptr noundef nonnull align 8 dereferenceable(25) %0) #5 comdat align 2 {
  %2 = alloca ptr, align 8
  store ptr %0, ptr %2, align 8, !tbaa !51
  %3 = load ptr, ptr %2, align 8
  %4 = getelementptr inbounds nuw %class.btAlignedObjectArray.6, ptr %3, i32 0, i32 1
  %5 = load i32, ptr %4, align 4, !tbaa !81
  ret i32 %5
}

; Function Attrs: inlinehint mustprogress uwtable
define linkonce_odr dso_local { <2 x float>, <2 x float> } @_ZplRK9btVector3S1_(ptr noundef nonnull align 4 dereferenceable(16) %0, ptr noundef nonnull align 4 dereferenceable(16) %1) #8 comdat {
  %3 = alloca %class.btVector3, align 4
  %4 = alloca ptr, align 8
  %5 = alloca ptr, align 8
  %6 = alloca float, align 4
  %7 = alloca float, align 4
  %8 = alloca float, align 4
  store ptr %0, ptr %4, align 8, !tbaa !15
  store ptr %1, ptr %5, align 8, !tbaa !15
  call void @llvm.lifetime.start.p0(i64 4, ptr %6) #3
  %9 = load ptr, ptr %4, align 8, !tbaa !15
  %10 = getelementptr inbounds nuw %class.btVector3, ptr %9, i32 0, i32 0
  %11 = getelementptr inbounds [4 x float], ptr %10, i64 0, i64 0
  %12 = load float, ptr %11, align 4, !tbaa !13
  %13 = load ptr, ptr %5, align 8, !tbaa !15
  %14 = getelementptr inbounds nuw %class.btVector3, ptr %13, i32 0, i32 0
  %15 = getelementptr inbounds [4 x float], ptr %14, i64 0, i64 0
  %16 = load float, ptr %15, align 4, !tbaa !13
  %17 = fadd float %12, %16
  store float %17, ptr %6, align 4, !tbaa !13
  call void @llvm.lifetime.start.p0(i64 4, ptr %7) #3
  %18 = load ptr, ptr %4, align 8, !tbaa !15
  %19 = getelementptr inbounds nuw %class.btVector3, ptr %18, i32 0, i32 0
  %20 = getelementptr inbounds [4 x float], ptr %19, i64 0, i64 1
  %21 = load float, ptr %20, align 4, !tbaa !13
  %22 = load ptr, ptr %5, align 8, !tbaa !15
  %23 = getelementptr inbounds nuw %class.btVector3, ptr %22, i32 0, i32 0
  %24 = getelementptr inbounds [4 x float], ptr %23, i64 0, i64 1
  %25 = load float, ptr %24, align 4, !tbaa !13
  %26 = fadd float %21, %25
  store float %26, ptr %7, align 4, !tbaa !13
  call void @llvm.lifetime.start.p0(i64 4, ptr %8) #3
  %27 = load ptr, ptr %4, align 8, !tbaa !15
  %28 = getelementptr inbounds nuw %class.btVector3, ptr %27, i32 0, i32 0
  %29 = getelementptr inbounds [4 x float], ptr %28, i64 0, i64 2
  %30 = load float, ptr %29, align 4, !tbaa !13
  %31 = load ptr, ptr %5, align 8, !tbaa !15
  %32 = getelementptr inbounds nuw %class.btVector3, ptr %31, i32 0, i32 0
  %33 = getelementptr inbounds [4 x float], ptr %32, i64 0, i64 2
  %34 = load float, ptr %33, align 4, !tbaa !13
  %35 = fadd float %30, %34
  store float %35, ptr %8, align 4, !tbaa !13
  call void @_ZN9btVector3C2ERKfS1_S1_(ptr noundef nonnull align 4 dereferenceable(16) %3, ptr noundef nonnull align 4 dereferenceable(4) %6, ptr noundef nonnull align 4 dereferenceable(4) %7, ptr noundef nonnull align 4 dereferenceable(4) %8)
  call void @llvm.lifetime.end.p0(i64 4, ptr %8) #3
  call void @llvm.lifetime.end.p0(i64 4, ptr %7) #3
  call void @llvm.lifetime.end.p0(i64 4, ptr %6) #3
  %36 = getelementptr inbounds nuw %class.btVector3, ptr %3, i32 0, i32 0
  %37 = load { <2 x float>, <2 x float> }, ptr %36, align 4
  ret { <2 x float>, <2 x float> } %37
}

; Function Attrs: inlinehint mustprogress nounwind uwtable
define linkonce_odr dso_local noundef i32 @_ZNK16btRaycastVehicle12getRightAxisEv(ptr noundef nonnull align 8 dereferenceable(224) %0) #5 comdat align 2 {
  %2 = alloca ptr, align 8
  store ptr %0, ptr %2, align 8, !tbaa !23
  %3 = load ptr, ptr %2, align 8
  %4 = getelementptr inbounds nuw %class.btRaycastVehicle, ptr %3, i32 0, i32 12
  %5 = load i32, ptr %4, align 8, !tbaa !42
  ret i32 %5
}

; Function Attrs: inlinehint mustprogress nounwind uwtable
define linkonce_odr dso_local noundef ptr @_ZN9btVector3cvPfEv(ptr noundef nonnull align 4 dereferenceable(16) %0) #5 comdat align 2 {
  %2 = alloca ptr, align 8
  store ptr %0, ptr %2, align 8, !tbaa !15
  %3 = load ptr, ptr %2, align 8
  %4 = getelementptr inbounds nuw %class.btVector3, ptr %3, i32 0, i32 0
  %5 = getelementptr inbounds [4 x float], ptr %4, i64 0, i64 0
  ret ptr %5
}

; Function Attrs: inlinehint mustprogress nounwind uwtable
define linkonce_odr dso_local noundef nonnull align 4 dereferenceable(16) ptr @_ZN11btMatrix3x3ixEi(ptr noundef nonnull align 4 dereferenceable(48) %0, i32 noundef %1) #5 comdat align 2 {
  %3 = alloca ptr, align 8
  %4 = alloca i32, align 4
  store ptr %0, ptr %3, align 8, !tbaa !104
  store i32 %1, ptr %4, align 4, !tbaa !9
  %5 = load ptr, ptr %3, align 8
  %6 = getelementptr inbounds nuw %class.btMatrix3x3, ptr %5, i32 0, i32 0
  %7 = load i32, ptr %4, align 4, !tbaa !9
  %8 = sext i32 %7 to i64
  %9 = getelementptr inbounds [3 x %class.btVector3], ptr %6, i64 0, i64 %8
  ret ptr %9
}

; Function Attrs: inlinehint mustprogress nounwind uwtable
define linkonce_odr dso_local noundef nonnull align 4 dereferenceable(48) ptr @_ZN11btTransform8getBasisEv(ptr noundef nonnull align 4 dereferenceable(64) %0) #5 comdat align 2 {
  %2 = alloca ptr, align 8
  store ptr %0, ptr %2, align 8, !tbaa !106
  %3 = load ptr, ptr %2, align 8
  %4 = getelementptr inbounds nuw %class.btTransform, ptr %3, i32 0, i32 0
  ret ptr %4
}

; Function Attrs: inlinehint mustprogress nounwind uwtable
define linkonce_odr dso_local noundef nonnull align 4 dereferenceable(16) ptr @_ZN11btTransform9getOriginEv(ptr noundef nonnull align 4 dereferenceable(64) %0) #5 comdat align 2 {
  %2 = alloca ptr, align 8
  store ptr %0, ptr %2, align 8, !tbaa !106
  %3 = load ptr, ptr %2, align 8
  %4 = getelementptr inbounds nuw %class.btTransform, ptr %3, i32 0, i32 1
  ret ptr %4
}

; Function Attrs: inlinehint mustprogress nounwind uwtable
define linkonce_odr dso_local void @_ZN9btVector38setValueERKfS1_S1_(ptr noundef nonnull align 4 dereferenceable(16) %0, ptr noundef nonnull align 4 dereferenceable(4) %1, ptr noundef nonnull align 4 dereferenceable(4) %2, ptr noundef nonnull align 4 dereferenceable(4) %3) #5 comdat align 2 {
  %5 = alloca ptr, align 8
  %6 = alloca ptr, align 8
  %7 = alloca ptr, align 8
  %8 = alloca ptr, align 8
  store ptr %0, ptr %5, align 8, !tbaa !15
  store ptr %1, ptr %6, align 8, !tbaa !17
  store ptr %2, ptr %7, align 8, !tbaa !17
  store ptr %3, ptr %8, align 8, !tbaa !17
  %9 = load ptr, ptr %5, align 8
  %10 = load ptr, ptr %6, align 8, !tbaa !17
  %11 = load float, ptr %10, align 4, !tbaa !13
  %12 = getelementptr inbounds nuw %class.btVector3, ptr %9, i32 0, i32 0
  %13 = getelementptr inbounds [4 x float], ptr %12, i64 0, i64 0
  store float %11, ptr %13, align 4, !tbaa !13
  %14 = load ptr, ptr %7, align 8, !tbaa !17
  %15 = load float, ptr %14, align 4, !tbaa !13
  %16 = getelementptr inbounds nuw %class.btVector3, ptr %9, i32 0, i32 0
  %17 = getelementptr inbounds [4 x float], ptr %16, i64 0, i64 1
  store float %15, ptr %17, align 4, !tbaa !13
  %18 = load ptr, ptr %8, align 8, !tbaa !17
  %19 = load float, ptr %18, align 4, !tbaa !13
  %20 = getelementptr inbounds nuw %class.btVector3, ptr %9, i32 0, i32 0
  %21 = getelementptr inbounds [4 x float], ptr %20, i64 0, i64 2
  store float %19, ptr %21, align 4, !tbaa !13
  %22 = getelementptr inbounds nuw %class.btVector3, ptr %9, i32 0, i32 0
  %23 = getelementptr inbounds [4 x float], ptr %22, i64 0, i64 3
  store float 0.000000e+00, ptr %23, align 4, !tbaa !13
  ret void
}

; Function Attrs: mustprogress uwtable
define dso_local noundef nonnull align 8 dereferenceable(296) ptr @_ZN16btRaycastVehicle12getWheelInfoEi(ptr noundef nonnull align 8 dereferenceable(224) %0, i32 noundef %1) #2 align 2 {
  %3 = alloca ptr, align 8
  %4 = alloca i32, align 4
  store ptr %0, ptr %3, align 8, !tbaa !23
  store i32 %1, ptr %4, align 4, !tbaa !9
  %5 = load ptr, ptr %3, align 8
  %6 = getelementptr inbounds nuw %class.btRaycastVehicle, ptr %5, i32 0, i32 16
  %7 = load i32, ptr %4, align 4, !tbaa !9
  %8 = call noundef nonnull align 8 dereferenceable(296) ptr @_ZN20btAlignedObjectArrayI11btWheelInfoEixEi(ptr noundef nonnull align 8 dereferenceable(25) %6, i32 noundef %7)
  ret ptr %8
}

; Function Attrs: inlinehint mustprogress nounwind uwtable
define linkonce_odr dso_local void @_ZN9btVector3C2ERKfS1_S1_(ptr noundef nonnull align 4 dereferenceable(16) %0, ptr noundef nonnull align 4 dereferenceable(4) %1, ptr noundef nonnull align 4 dereferenceable(4) %2, ptr noundef nonnull align 4 dereferenceable(4) %3) unnamed_addr #5 comdat align 2 {
  %5 = alloca ptr, align 8
  %6 = alloca ptr, align 8
  %7 = alloca ptr, align 8
  %8 = alloca ptr, align 8
  store ptr %0, ptr %5, align 8, !tbaa !15
  store ptr %1, ptr %6, align 8, !tbaa !17
  store ptr %2, ptr %7, align 8, !tbaa !17
  store ptr %3, ptr %8, align 8, !tbaa !17
  %9 = load ptr, ptr %5, align 8
  %10 = load ptr, ptr %6, align 8, !tbaa !17
  %11 = load float, ptr %10, align 4, !tbaa !13
  %12 = getelementptr inbounds nuw %class.btVector3, ptr %9, i32 0, i32 0
  %13 = getelementptr inbounds [4 x float], ptr %12, i64 0, i64 0
  store float %11, ptr %13, align 4, !tbaa !13
  %14 = load ptr, ptr %7, align 8, !tbaa !17
  %15 = load float, ptr %14, align 4, !tbaa !13
  %16 = getelementptr inbounds nuw %class.btVector3, ptr %9, i32 0, i32 0
  %17 = getelementptr inbounds [4 x float], ptr %16, i64 0, i64 1
  store float %15, ptr %17, align 4, !tbaa !13
  %18 = load ptr, ptr %8, align 8, !tbaa !17
  %19 = load float, ptr %18, align 4, !tbaa !13
  %20 = getelementptr inbounds nuw %class.btVector3, ptr %9, i32 0, i32 0
  %21 = getelementptr inbounds [4 x float], ptr %20, i64 0, i64 2
  store float %19, ptr %21, align 4, !tbaa !13
  %22 = getelementptr inbounds nuw %class.btVector3, ptr %9, i32 0, i32 0
  %23 = getelementptr inbounds [4 x float], ptr %22, i64 0, i64 3
  store float 0.000000e+00, ptr %23, align 4, !tbaa !13
  ret void
}

; Function Attrs: inlinehint mustprogress uwtable
define linkonce_odr dso_local noundef i32 @_ZNK16btRaycastVehicle12getNumWheelsEv(ptr noundef nonnull align 8 dereferenceable(224) %0) #8 comdat align 2 {
  %2 = alloca ptr, align 8
  store ptr %0, ptr %2, align 8, !tbaa !23
  %3 = load ptr, ptr %2, align 8
  %4 = getelementptr inbounds nuw %class.btRaycastVehicle, ptr %3, i32 0, i32 16
  %5 = call noundef i32 @_ZNK20btAlignedObjectArrayI11btWheelInfoE4sizeEv(ptr noundef nonnull align 8 dereferenceable(25) %4)
  ret i32 %5
}

; Function Attrs: mustprogress uwtable
define dso_local void @_ZN16btRaycastVehicle9debugDrawEP12btIDebugDraw(ptr noundef nonnull align 8 dereferenceable(224) %0, ptr noundef %1) unnamed_addr #10 align 2 {
  %3 = alloca ptr, align 8
  %4 = alloca ptr, align 8
  %5 = alloca i32, align 4
  %6 = alloca %class.btVector3, align 4
  %7 = alloca float, align 4
  %8 = alloca float, align 4
  %9 = alloca float, align 4
  %10 = alloca float, align 4
  %11 = alloca float, align 4
  %12 = alloca float, align 4
  %13 = alloca float, align 4
  %14 = alloca float, align 4
  %15 = alloca float, align 4
  %16 = alloca %class.btVector3, align 4
  %17 = alloca %class.btVector3, align 4
  %18 = alloca %class.btVector3, align 4
  store ptr %0, ptr %3, align 8, !tbaa !23
  store ptr %1, ptr %4, align 8, !tbaa !159
  %19 = load ptr, ptr %3, align 8
  call void @llvm.lifetime.start.p0(i64 4, ptr %5) #3
  store i32 0, ptr %5, align 4, !tbaa !9
  br label %20

20:                                               ; preds = %84, %2
  %21 = load i32, ptr %5, align 4, !tbaa !9
  %22 = call noundef i32 @_ZNK16btRaycastVehicle12getNumWheelsEv(ptr noundef nonnull align 8 dereferenceable(224) %19)
  %23 = icmp slt i32 %21, %22
  br i1 %23, label %25, label %24

24:                                               ; preds = %20
  call void @llvm.lifetime.end.p0(i64 4, ptr %5) #3
  br label %87

25:                                               ; preds = %20
  call void @llvm.lifetime.start.p0(i64 16, ptr %6) #3
  call void @llvm.lifetime.start.p0(i64 4, ptr %7) #3
  store float 0.000000e+00, ptr %7, align 4, !tbaa !13
  call void @llvm.lifetime.start.p0(i64 4, ptr %8) #3
  store float 1.000000e+00, ptr %8, align 4, !tbaa !13
  call void @llvm.lifetime.start.p0(i64 4, ptr %9) #3
  store float 1.000000e+00, ptr %9, align 4, !tbaa !13
  call void @_ZN9btVector3C2ERKfS1_S1_(ptr noundef nonnull align 4 dereferenceable(16) %6, ptr noundef nonnull align 4 dereferenceable(4) %7, ptr noundef nonnull align 4 dereferenceable(4) %8, ptr noundef nonnull align 4 dereferenceable(4) %9)
  call void @llvm.lifetime.end.p0(i64 4, ptr %9) #3
  call void @llvm.lifetime.end.p0(i64 4, ptr %8) #3
  call void @llvm.lifetime.end.p0(i64 4, ptr %7) #3
  %26 = load i32, ptr %5, align 4, !tbaa !9
  %27 = call noundef nonnull align 8 dereferenceable(296) ptr @_ZN16btRaycastVehicle12getWheelInfoEi(ptr noundef nonnull align 8 dereferenceable(224) %19, i32 noundef %26)
  %28 = getelementptr inbounds nuw %struct.btWheelInfo, ptr %27, i32 0, i32 0
  %29 = getelementptr inbounds nuw %"struct.btWheelInfo::RaycastInfo", ptr %28, i32 0, i32 6
  %30 = load i8, ptr %29, align 4, !tbaa !101, !range !70, !noundef !71
  %31 = trunc i8 %30 to i1
  br i1 %31, label %32, label %33

32:                                               ; preds = %25
  call void @llvm.lifetime.start.p0(i64 4, ptr %10) #3
  store float 0.000000e+00, ptr %10, align 4, !tbaa !13
  call void @llvm.lifetime.start.p0(i64 4, ptr %11) #3
  store float 0.000000e+00, ptr %11, align 4, !tbaa !13
  call void @llvm.lifetime.start.p0(i64 4, ptr %12) #3
  store float 1.000000e+00, ptr %12, align 4, !tbaa !13
  call void @_ZN9btVector38setValueERKfS1_S1_(ptr noundef nonnull align 4 dereferenceable(16) %6, ptr noundef nonnull align 4 dereferenceable(4) %10, ptr noundef nonnull align 4 dereferenceable(4) %11, ptr noundef nonnull align 4 dereferenceable(4) %12)
  call void @llvm.lifetime.end.p0(i64 4, ptr %12) #3
  call void @llvm.lifetime.end.p0(i64 4, ptr %11) #3
  call void @llvm.lifetime.end.p0(i64 4, ptr %10) #3
  br label %34

33:                                               ; preds = %25
  call void @llvm.lifetime.start.p0(i64 4, ptr %13) #3
  store float 1.000000e+00, ptr %13, align 4, !tbaa !13
  call void @llvm.lifetime.start.p0(i64 4, ptr %14) #3
  store float 0.000000e+00, ptr %14, align 4, !tbaa !13
  call void @llvm.lifetime.start.p0(i64 4, ptr %15) #3
  store float 1.000000e+00, ptr %15, align 4, !tbaa !13
  call void @_ZN9btVector38setValueERKfS1_S1_(ptr noundef nonnull align 4 dereferenceable(16) %6, ptr noundef nonnull align 4 dereferenceable(4) %13, ptr noundef nonnull align 4 dereferenceable(4) %14, ptr noundef nonnull align 4 dereferenceable(4) %15)
  call void @llvm.lifetime.end.p0(i64 4, ptr %15) #3
  call void @llvm.lifetime.end.p0(i64 4, ptr %14) #3
  call void @llvm.lifetime.end.p0(i64 4, ptr %13) #3
  br label %34

34:                                               ; preds = %33, %32
  call void @llvm.lifetime.start.p0(i64 16, ptr %16) #3
  %35 = load i32, ptr %5, align 4, !tbaa !9
  %36 = call noundef nonnull align 8 dereferenceable(296) ptr @_ZN16btRaycastVehicle12getWheelInfoEi(ptr noundef nonnull align 8 dereferenceable(224) %19, i32 noundef %35)
  %37 = getelementptr inbounds nuw %struct.btWheelInfo, ptr %36, i32 0, i32 1
  %38 = call noundef nonnull align 4 dereferenceable(16) ptr @_ZN11btTransform9getOriginEv(ptr noundef nonnull align 4 dereferenceable(64) %37)
  call void @llvm.memcpy.p0.p0.i64(ptr align 4 %16, ptr align 4 %38, i64 16, i1 false), !tbaa.struct !56
  call void @llvm.lifetime.start.p0(i64 16, ptr %17) #3
  %39 = load i32, ptr %5, align 4, !tbaa !9
  %40 = call noundef nonnull align 8 dereferenceable(296) ptr @_ZN16btRaycastVehicle12getWheelInfoEi(ptr noundef nonnull align 8 dereferenceable(224) %19, i32 noundef %39)
  %41 = getelementptr inbounds nuw %struct.btWheelInfo, ptr %40, i32 0, i32 1
  %42 = call noundef nonnull align 4 dereferenceable(48) ptr @_ZN11btTransform8getBasisEv(ptr noundef nonnull align 4 dereferenceable(64) %41)
  %43 = call noundef nonnull align 4 dereferenceable(16) ptr @_ZN11btMatrix3x3ixEi(ptr noundef nonnull align 4 dereferenceable(48) %42, i32 noundef 0)
  %44 = call noundef ptr @_ZN9btVector3cvPfEv(ptr noundef nonnull align 4 dereferenceable(16) %43)
  %45 = call noundef i32 @_ZNK16btRaycastVehicle12getRightAxisEv(ptr noundef nonnull align 8 dereferenceable(224) %19)
  %46 = sext i32 %45 to i64
  %47 = getelementptr inbounds float, ptr %44, i64 %46
  %48 = load i32, ptr %5, align 4, !tbaa !9
  %49 = call noundef nonnull align 8 dereferenceable(296) ptr @_ZN16btRaycastVehicle12getWheelInfoEi(ptr noundef nonnull align 8 dereferenceable(224) %19, i32 noundef %48)
  %50 = getelementptr inbounds nuw %struct.btWheelInfo, ptr %49, i32 0, i32 1
  %51 = call noundef nonnull align 4 dereferenceable(48) ptr @_ZN11btTransform8getBasisEv(ptr noundef nonnull align 4 dereferenceable(64) %50)
  %52 = call noundef nonnull align 4 dereferenceable(16) ptr @_ZN11btMatrix3x3ixEi(ptr noundef nonnull align 4 dereferenceable(48) %51, i32 noundef 1)
  %53 = call noundef ptr @_ZN9btVector3cvPfEv(ptr noundef nonnull align 4 dereferenceable(16) %52)
  %54 = call noundef i32 @_ZNK16btRaycastVehicle12getRightAxisEv(ptr noundef nonnull align 8 dereferenceable(224) %19)
  %55 = sext i32 %54 to i64
  %56 = getelementptr inbounds float, ptr %53, i64 %55
  %57 = load i32, ptr %5, align 4, !tbaa !9
  %58 = call noundef nonnull align 8 dereferenceable(296) ptr @_ZN16btRaycastVehicle12getWheelInfoEi(ptr noundef nonnull align 8 dereferenceable(224) %19, i32 noundef %57)
  %59 = getelementptr inbounds nuw %struct.btWheelInfo, ptr %58, i32 0, i32 1
  %60 = call noundef nonnull align 4 dereferenceable(48) ptr @_ZN11btTransform8getBasisEv(ptr noundef nonnull align 4 dereferenceable(64) %59)
  %61 = call noundef nonnull align 4 dereferenceable(16) ptr @_ZN11btMatrix3x3ixEi(ptr noundef nonnull align 4 dereferenceable(48) %60, i32 noundef 2)
  %62 = call noundef ptr @_ZN9btVector3cvPfEv(ptr noundef nonnull align 4 dereferenceable(16) %61)
  %63 = call noundef i32 @_ZNK16btRaycastVehicle12getRightAxisEv(ptr noundef nonnull align 8 dereferenceable(224) %19)
  %64 = sext i32 %63 to i64
  %65 = getelementptr inbounds float, ptr %62, i64 %64
  call void @_ZN9btVector3C2ERKfS1_S1_(ptr noundef nonnull align 4 dereferenceable(16) %17, ptr noundef nonnull align 4 dereferenceable(4) %47, ptr noundef nonnull align 4 dereferenceable(4) %56, ptr noundef nonnull align 4 dereferenceable(4) %65)
  %66 = load ptr, ptr %4, align 8, !tbaa !159
  call void @llvm.lifetime.start.p0(i64 16, ptr %18) #3
  %67 = call { <2 x float>, <2 x float> } @_ZplRK9btVector3S1_(ptr noundef nonnull align 4 dereferenceable(16) %16, ptr noundef nonnull align 4 dereferenceable(16) %17)
  %68 = getelementptr inbounds nuw %class.btVector3, ptr %18, i32 0, i32 0
  %69 = getelementptr inbounds nuw { <2 x float>, <2 x float> }, ptr %68, i32 0, i32 0
  %70 = extractvalue { <2 x float>, <2 x float> } %67, 0
  store <2 x float> %70, ptr %69, align 4
  %71 = getelementptr inbounds nuw { <2 x float>, <2 x float> }, ptr %68, i32 0, i32 1
  %72 = extractvalue { <2 x float>, <2 x float> } %67, 1
  store <2 x float> %72, ptr %71, align 4
  %73 = load ptr, ptr %66, align 8, !tbaa !21
  %74 = getelementptr inbounds ptr, ptr %73, i64 4
  %75 = load ptr, ptr %74, align 8
  call void %75(ptr noundef nonnull align 8 dereferenceable(8) %66, ptr noundef nonnull align 4 dereferenceable(16) %16, ptr noundef nonnull align 4 dereferenceable(16) %18, ptr noundef nonnull align 4 dereferenceable(16) %6)
  call void @llvm.lifetime.end.p0(i64 16, ptr %18) #3
  %76 = load ptr, ptr %4, align 8, !tbaa !159
  %77 = load i32, ptr %5, align 4, !tbaa !9
  %78 = call noundef nonnull align 8 dereferenceable(296) ptr @_ZN16btRaycastVehicle12getWheelInfoEi(ptr noundef nonnull align 8 dereferenceable(224) %19, i32 noundef %77)
  %79 = getelementptr inbounds nuw %struct.btWheelInfo, ptr %78, i32 0, i32 0
  %80 = getelementptr inbounds nuw %"struct.btWheelInfo::RaycastInfo", ptr %79, i32 0, i32 1
  %81 = load ptr, ptr %76, align 8, !tbaa !21
  %82 = getelementptr inbounds ptr, ptr %81, i64 4
  %83 = load ptr, ptr %82, align 8
  call void %83(ptr noundef nonnull align 8 dereferenceable(8) %76, ptr noundef nonnull align 4 dereferenceable(16) %16, ptr noundef nonnull align 4 dereferenceable(16) %80, ptr noundef nonnull align 4 dereferenceable(16) %6)
  call void @llvm.lifetime.end.p0(i64 16, ptr %17) #3
  call void @llvm.lifetime.end.p0(i64 16, ptr %16) #3
  call void @llvm.lifetime.end.p0(i64 16, ptr %6) #3
  br label %84

84:                                               ; preds = %34
  %85 = load i32, ptr %5, align 4, !tbaa !9
  %86 = add nsw i32 %85, 1
  store i32 %86, ptr %5, align 4, !tbaa !9
  br label %20, !llvm.loop !161

87:                                               ; preds = %24
  ret void
}