; Function Attrs: mustprogress uwtable
define dso_local void @_ZN16btRaycastVehicle9debugDrawEP12btIDebugDraw(ptr noundef nonnull readonly align 8 captures(none) dereferenceable(224) %0, ptr noundef %1) unnamed_addr #7 align 2 {
  %3 = alloca %class.btVector3, align 4
  %4 = alloca %class.btVector3, align 4
  %5 = alloca %class.btVector3, align 8
  %6 = getelementptr inbounds nuw i8, ptr %0, i64 196
  %7 = load i32, ptr %6, align 4, !tbaa !47
  %8 = icmp sgt i32 %7, 0
  br i1 %8, label %.lr.ph, label %._crit_edge

.lr.ph:                                           ; preds = %2
  %9 = getelementptr inbounds nuw i8, ptr %3, i64 4
  %10 = getelementptr inbounds nuw i8, ptr %3, i64 8
  %11 = getelementptr inbounds nuw i8, ptr %3, i64 12
  %12 = getelementptr inbounds nuw i8, ptr %0, i64 208
  %13 = getelementptr inbounds nuw i8, ptr %0, i64 176
  %14 = getelementptr inbounds nuw i8, ptr %4, i64 4
  %15 = getelementptr inbounds nuw i8, ptr %4, i64 8
  %16 = getelementptr inbounds nuw i8, ptr %5, i64 8
  br label %17

._crit_edge:                                      ; preds = %17, %2
  ret void

17:                                               ; preds = %.lr.ph, %17
  %indvars.iv = phi i64 [ 0, %.lr.ph ], [ %indvars.iv.next, %17 ]
  call void @llvm.lifetime.start.p0(i64 16, ptr nonnull %3) #21
  %18 = load ptr, ptr %12, align 8, !tbaa !46
  %19 = getelementptr inbounds nuw %struct.btWheelInfo, ptr %18, i64 %indvars.iv
  %20 = getelementptr inbounds nuw i8, ptr %19, i64 84
  %21 = load i8, ptr %20, align 4, !tbaa !70, !range !17, !noundef !18
  %22 = trunc nuw i8 %21 to i1
  %. = select i1 %22, float 0.000000e+00, float 1.000000e+00
  store float %., ptr %3, align 4, !tbaa !64
  store float 0.000000e+00, ptr %9, align 4, !tbaa !64
  store float 1.000000e+00, ptr %10, align 4, !tbaa !64
  store float 0.000000e+00, ptr %11, align 4, !tbaa !64
  call void @llvm.lifetime.start.p0(i64 16, ptr nonnull %4) #21
  %23 = getelementptr inbounds nuw i8, ptr %19, i64 96
  %24 = getelementptr inbounds nuw i8, ptr %19, i64 144
  call void @llvm.memcpy.p0.p0.i64(ptr noundef nonnull align 4 dereferenceable(16) %4, ptr noundef nonnull align 4 dereferenceable(16) %24, i64 16, i1 false), !tbaa.struct !67
  %25 = load i32, ptr %13, align 8, !tbaa !50
  %26 = sext i32 %25 to i64
  %27 = getelementptr inbounds float, ptr %23, i64 %26
  %28 = getelementptr inbounds nuw i8, ptr %19, i64 112
  %29 = getelementptr inbounds float, ptr %28, i64 %26
  %30 = getelementptr inbounds nuw i8, ptr %19, i64 128
  %31 = getelementptr inbounds float, ptr %30, i64 %26
  %32 = load float, ptr %27, align 4, !tbaa !64
  %33 = load float, ptr %29, align 4, !tbaa !64
  %34 = load float, ptr %31, align 4, !tbaa !64
  call void @llvm.lifetime.start.p0(i64 16, ptr nonnull %5) #21
  %35 = load float, ptr %4, align 4, !tbaa !64
  %36 = fadd float %32, %35
  %37 = load float, ptr %14, align 4, !tbaa !64
  %38 = fadd float %33, %37
  %39 = load float, ptr %15, align 4, !tbaa !64
  %40 = fadd float %34, %39
  %.sroa.0.0.vec.insert.i = insertelement <2 x float> poison, float %36, i64 0
  %.sroa.0.4.vec.insert.i = insertelement <2 x float> %.sroa.0.0.vec.insert.i, float %38, i64 1
  %.sroa.3.12.vec.insert.i = insertelement <2 x float> <float poison, float 0.000000e+00>, float %40, i64 0
  store <2 x float> %.sroa.0.4.vec.insert.i, ptr %5, align 8
  store <2 x float> %.sroa.3.12.vec.insert.i, ptr %16, align 8
  %41 = load ptr, ptr %1, align 8, !tbaa !5
  %42 = getelementptr inbounds nuw i8, ptr %41, i64 32
  %43 = load ptr, ptr %42, align 8
  call void %43(ptr noundef nonnull align 8 dereferenceable(8) %1, ptr noundef nonnull align 4 dereferenceable(16) %4, ptr noundef nonnull align 4 dereferenceable(16) %5, ptr noundef nonnull align 4 dereferenceable(16) %3)
  call void @llvm.lifetime.end.p0(i64 16, ptr nonnull %5) #21
  %44 = load ptr, ptr %12, align 8, !tbaa !46
  %45 = getelementptr inbounds nuw %struct.btWheelInfo, ptr %44, i64 %indvars.iv, i32 0, i32 1
  %46 = load ptr, ptr %1, align 8, !tbaa !5
  %47 = getelementptr inbounds nuw i8, ptr %46, i64 32
  %48 = load ptr, ptr %47, align 8
  call void %48(ptr noundef nonnull align 8 dereferenceable(8) %1, ptr noundef nonnull align 4 dereferenceable(16) %4, ptr noundef nonnull align 4 dereferenceable(16) %45, ptr noundef nonnull align 4 dereferenceable(16) %3)
  call void @llvm.lifetime.end.p0(i64 16, ptr nonnull %4) #21
  call void @llvm.lifetime.end.p0(i64 16, ptr nonnull %3) #21
  %indvars.iv.next = add nuw nsw i64 %indvars.iv, 1
  %49 = load i32, ptr %6, align 4, !tbaa !47
  %50 = sext i32 %49 to i64
  %51 = icmp slt i64 %indvars.iv.next, %50
  br i1 %51, label %17, label %._crit_edge, !llvm.loop !127
}